target datalayout = "e-m:e-p270:32:32-p271:32:32-p272:64:64-i64:64-i128:128-f80:128-n8:16:32:64-S128"
target triple = "x86_64-pc-linux-gnu"

%struct._address = type { i32, i32, ptr, ptr }
%struct._packet_info = type { ptr, ptr, i32, i32, %struct.nstime_t, %struct.nstime_t, %struct.nstime_t, i8, ptr, ptr, ptr, ptr, %struct._address, %struct._address, %struct._address, %struct._address, %struct._address, %struct._address, i32, ptr, i8, [3 x i8], %struct.anon, i32, i32, i32, i32, ptr, i8, ptr, ptr, i16, i16, i32, i32, i16, i32, i32, ptr, ptr, ptr, i8, i8, i16, i16, i16, i32, i16, i16, ptr, ptr, ptr, ptr, ptr, i32, i32 }
%struct.nstime_t = type { i64, i32 }
%struct.anon = type { i8, [3 x i8] }
%struct._fragment_head = type { ptr, ptr, i32, i32, i32, i32, i32, i32, i32, i8, i32, ptr, ptr }
%struct._fragment_item = type { ptr, i32, i32, i32, i32, ptr }
%struct._fragment_items = type { ptr, ptr, ptr, ptr, ptr, ptr, ptr, ptr, ptr, ptr, ptr, ptr, ptr, ptr }
%struct._proto_node = type { ptr, ptr, ptr, ptr, ptr, ptr, ptr }
%struct.field_info = type { ptr, i32, i32, i32, i32, i32, i32, ptr, ptr, ptr, i32, i32 }

@.str.40 = private unnamed_addr constant [13 x i8] c"[Illegal %s]\00", align 1

; Function Attrs: null_pointer_is_valid sspstrong uwtable
define internal zeroext i1 @show_fragment_errs_in_col(ptr noundef %0, ptr noundef %1, ptr noundef %2) #1 {
  %4 = alloca i1, align 1
  %5 = alloca ptr, align 8
  %6 = alloca ptr, align 8
  %7 = alloca ptr, align 8
  store ptr %0, ptr %5, align 8
  store ptr %1, ptr %6, align 8
  store ptr %2, ptr %7, align 8
  %8 = load ptr, ptr %5, align 8
  %9 = getelementptr inbounds nuw %struct._fragment_head, ptr %8, i32 0, i32 10
  %10 = load i32, ptr %9, align 8
  %11 = and i32 %10, 28
  %12 = icmp ne i32 %11, 0
  br i1 %12, label %13, label %20

13:                                               ; preds = %3
  %14 = load ptr, ptr %7, align 8
  %15 = getelementptr inbounds nuw %struct._packet_info, ptr %14, i32 0, i32 1
  %16 = load ptr, ptr %15, align 8
  %17 = load ptr, ptr %6, align 8
  %18 = getelementptr inbounds nuw %struct._fragment_items, ptr %17, i32 0, i32 13
  %19 = load ptr, ptr %18, align 8
  call void (ptr, i32, ptr, ...) @col_add_fstr(ptr noundef %16, i32 noundef 25, ptr noundef @.str.40, ptr noundef %19)
  store i1 true, ptr %4, align 1
  br label %21

20:                                               ; preds = %3
  store i1 false, ptr %4, align 1
  br label %21

21:                                               ; preds = %20, %13
  %22 = load i1, ptr %4, align 1
  ret i1 %22
}

; Function Attrs: inlinehint nounwind null_pointer_is_valid sspstrong uwtable
define internal void @proto_item_set_generated(ptr noundef %0) #8 {
  %2 = alloca ptr, align 8
  store ptr %0, ptr %2, align 8
  %3 = load ptr, ptr %2, align 8
  %4 = icmp ne ptr %3, null
  br i1 %4, label %5, label %24

5:                                                ; preds = %1
  br label %6

6:                                                ; preds = %5
  %7 = load ptr, ptr %2, align 8
  %8 = getelementptr inbounds nuw %struct._proto_node, ptr %7, i32 0, i32 5
  %9 = load ptr, ptr %8, align 8
  %10 = icmp ne ptr %9, null
  br i1 %10, label %11, label %22

11:                                               ; preds = %6
  %12 = load ptr, ptr %2, align 8
  %13 = getelementptr inbounds nuw %struct._proto_node, ptr %12, i32 0, i32 5
  %14 = load ptr, ptr %13, align 8
  %15 = getelementptr inbounds nuw %struct.field_info, ptr %14, i32 0, i32 6
  %16 = load i32, ptr %15, align 4
  %17 = or i32 %16, 2
  %18 = load ptr, ptr %2, align 8
  %19 = getelementptr inbounds nuw %struct._proto_node, ptr %18, i32 0, i32 5
  %20 = load ptr, ptr %19, align 8
  %21 = getelementptr inbounds nuw %struct.field_info, ptr %20, i32 0, i32 6
  store i32 %17, ptr %21, align 4
  br label %22

22:                                               ; preds = %11, %6
  br label %23

23:                                               ; preds = %22
  br label %24

24:                                               ; preds = %23, %1
  ret void
}

; Function Attrs: null_pointer_is_valid sspstrong uwtable
define zeroext i1 @show_fragment_tree(ptr noundef %0, ptr noundef %1, ptr noundef %2, ptr noundef %3, ptr noundef %4, ptr noundef %5) #1 {
  %7 = alloca ptr, align 8
  %8 = alloca ptr, align 8
  %9 = alloca ptr, align 8
  %10 = alloca ptr, align 8
  %11 = alloca ptr, align 8
  %12 = alloca ptr, align 8
  %13 = alloca ptr, align 8
  %14 = alloca ptr, align 8
  %15 = alloca i8, align 1
  %16 = alloca i32, align 4
  %17 = alloca ptr, align 8
  %18 = alloca ptr, align 8
  %19 = alloca ptr, align 8
  store ptr %0, ptr %7, align 8
  store ptr %1, ptr %8, align 8
  store ptr %2, ptr %9, align 8
  store ptr %3, ptr %10, align 8
  store ptr %4, ptr %11, align 8
  store ptr %5, ptr %12, align 8
  call void @llvm.lifetime.start.p0(i64 8, ptr %13) #16
  call void @llvm.lifetime.start.p0(i64 8, ptr %14) #16
  call void @llvm.lifetime.start.p0(i64 1, ptr %15) #16
  call void @llvm.lifetime.start.p0(i64 4, ptr %16) #16
  store i32 0, ptr %16, align 4
  %20 = load ptr, ptr %10, align 8
  %21 = getelementptr inbounds nuw %struct._packet_info, ptr %20, i32 0, i32 20
  store i8 0, ptr %21, align 8
  %22 = load ptr, ptr %9, align 8
  %23 = load ptr, ptr %8, align 8
  %24 = getelementptr inbounds nuw %struct._fragment_items, ptr %23, i32 0, i32 2
  %25 = load ptr, ptr %24, align 8
  %26 = load i32, ptr %25, align 4
  %27 = load ptr, ptr %11, align 8
  %28 = call ptr @proto_tree_add_item(ptr noundef %22, i32 noundef %26, ptr noundef %27, i32 noundef 0, i32 noundef -1, i32 noundef 0)
  %29 = load ptr, ptr %12, align 8
  store ptr %28, ptr %29, align 8
  %30 = load ptr, ptr %12, align 8
  %31 = load ptr, ptr %30, align 8
  call void @proto_item_set_generated(ptr noundef %31)
  %32 = load ptr, ptr %12, align 8
  %33 = load ptr, ptr %32, align 8
  %34 = load ptr, ptr %8, align 8
  %35 = getelementptr inbounds nuw %struct._fragment_items, ptr %34, i32 0, i32 1
  %36 = load ptr, ptr %35, align 8
  %37 = load i32, ptr %36, align 4
  %38 = call ptr @proto_item_add_subtree(ptr noundef %33, i32 noundef %37)
  store ptr %38, ptr %14, align 8
  store i8 1, ptr %15, align 1
  %39 = load ptr, ptr %7, align 8
  %40 = getelementptr inbounds nuw %struct._fragment_head, ptr %39, i32 0, i32 0
  %41 = load ptr, ptr %40, align 8
  store ptr %41, ptr %13, align 8
  br label %42

42:                                               ; preds = %48, %6
  %43 = load ptr, ptr %13, align 8
  %44 = icmp ne ptr %43, null
  br i1 %44, label %45, label %52

45:                                               ; preds = %42
  %46 = load i32, ptr %16, align 4
  %47 = add i32 %46, 1
  store i32 %47, ptr %16, align 4
  br label %48

48:                                               ; preds = %45
  %49 = load ptr, ptr %13, align 8
  %50 = getelementptr inbounds nuw %struct._fragment_item, ptr %49, i32 0, i32 0
  %51 = load ptr, ptr %50, align 8
  store ptr %51, ptr %13, align 8
  br label %42, !llvm.loop !33

52:                                               ; preds = %42
  %53 = load ptr, ptr %7, align 8
  %54 = getelementptr inbounds nuw %struct._fragment_head, ptr %53, i32 0, i32 0
  %55 = load ptr, ptr %54, align 8
  store ptr %55, ptr %13, align 8
  br label %56

56:                                               ; preds = %73, %52
  %57 = load ptr, ptr %13, align 8
  %58 = icmp ne ptr %57, null
  br i1 %58, label %59, label %77

59:                                               ; preds = %56
  %60 = load ptr, ptr %13, align 8
  %61 = load ptr, ptr %13, align 8
  %62 = getelementptr inbounds nuw %struct._fragment_item, ptr %61, i32 0, i32 2
  %63 = load i32, ptr %62, align 4
  %64 = load ptr, ptr %8, align 8
  %65 = load ptr, ptr %14, align 8
  %66 = load ptr, ptr %12, align 8
  %67 = load ptr, ptr %66, align 8
  %68 = load i8, ptr %15, align 1, !range !13, !noundef !14
  %69 = trunc i8 %68 to i1
  %70 = load i32, ptr %16, align 4
  %71 = load ptr, ptr %11, align 8
  %72 = load ptr, ptr %10, align 8
  call void @show_fragment(ptr noundef %60, i32 noundef %63, ptr noundef %64, ptr noundef %65, ptr noundef %67, i1 noundef zeroext %69, i32 noundef %70, ptr noundef %71, ptr noundef %72)
  store i8 0, ptr %15, align 1
  br label %73

73:                                               ; preds = %59
  %74 = load ptr, ptr %13, align 8
  %75 = getelementptr inbounds nuw %struct._fragment_item, ptr %74, i32 0, i32 0
  %76 = load ptr, ptr %75, align 8
  store ptr %76, ptr %13, align 8
  br label %56, !llvm.loop !34

77:                                               ; preds = %56
  %78 = load ptr, ptr %8, align 8
  %79 = getelementptr inbounds nuw %struct._fragment_items, ptr %78, i32 0, i32 9
  %80 = load ptr, ptr %79, align 8
  %81 = icmp ne ptr %80, null
  br i1 %81, label %82, label %92

82:                                               ; preds = %77
  call void @llvm.lifetime.start.p0(i64 8, ptr %17) #16
  %83 = load ptr, ptr %14, align 8
  %84 = load ptr, ptr %8, align 8
  %85 = getelementptr inbounds nuw %struct._fragment_items, ptr %84, i32 0, i32 9
  %86 = load ptr, ptr %85, align 8
  %87 = load i32, ptr %86, align 4
  %88 = load ptr, ptr %11, align 8
  %89 = load i32, ptr %16, align 4
  %90 = call ptr @proto_tree_add_uint(ptr noundef %83, i32 noundef %87, ptr noundef %88, i32 noundef 0, i32 noundef 0, i32 noundef %89)
  store ptr %90, ptr %17, align 8
  %91 = load ptr, ptr %17, align 8
  call void @proto_item_set_generated(ptr noundef %91)
  call void @llvm.lifetime.end.p0(i64 8, ptr %17) #16
  br label %92

92:                                               ; preds = %82, %77
  %93 = load ptr, ptr %8, align 8
  %94 = getelementptr inbounds nuw %struct._fragment_items, ptr %93, i32 0, i32 11
  %95 = load ptr, ptr %94, align 8
  %96 = icmp ne ptr %95, null
  br i1 %96, label %97, label %108

97:                                               ; preds = %92
  call void @llvm.lifetime.start.p0(i64 8, ptr %18) #16
  %98 = load ptr, ptr %14, align 8
  %99 = load ptr, ptr %8, align 8
  %100 = getelementptr inbounds nuw %struct._fragment_items, ptr %99, i32 0, i32 11
  %101 = load ptr, ptr %100, align 8
  %102 = load i32, ptr %101, align 4
  %103 = load ptr, ptr %11, align 8
  %104 = load ptr, ptr %11, align 8
  %105 = call i32 @tvb_captured_length(ptr noundef %104)
  %106 = call ptr @proto_tree_add_uint(ptr noundef %98, i32 noundef %102, ptr noundef %103, i32 noundef 0, i32 noundef 0, i32 noundef %105)
  store ptr %106, ptr %18, align 8
  %107 = load ptr, ptr %18, align 8
  call void @proto_item_set_generated(ptr noundef %107)
  call void @llvm.lifetime.end.p0(i64 8, ptr %18) #16
  br label %108

108:                                              ; preds = %97, %92
  %109 = load ptr, ptr %8, align 8
  %110 = getelementptr inbounds nuw %struct._fragment_items, ptr %109, i32 0, i32 12
  %111 = load ptr, ptr %110, align 8
  %112 = icmp ne ptr %111, null
  br i1 %112, label %113, label %124

113:                                              ; preds = %108
  call void @llvm.lifetime.start.p0(i64 8, ptr %19) #16
  %114 = load ptr, ptr %14, align 8
  %115 = load ptr, ptr %8, align 8
  %116 = getelementptr inbounds nuw %struct._fragment_items, ptr %115, i32 0, i32 12
  %117 = load ptr, ptr %116, align 8
  %118 = load i32, ptr %117, align 4
  %119 = load ptr, ptr %11, align 8
  %120 = load ptr, ptr %11, align 8
  %121 = call i32 @tvb_captured_length(ptr noundef %120)
  %122 = call ptr @proto_tree_add_item(ptr noundef %114, i32 noundef %118, ptr noundef %119, i32 noundef 0, i32 noundef %121, i32 noundef 0)
  store ptr %122, ptr %19, align 8
  %123 = load ptr, ptr %19, align 8
  call void @proto_item_set_generated(ptr noundef %123)
  call void @llvm.lifetime.end.p0(i64 8, ptr %19) #16
  br label %124

124:                                              ; preds = %113, %108
  %125 = load ptr, ptr %7, align 8
  %126 = load ptr, ptr %8, align 8
  %127 = load ptr, ptr %10, align 8
  %128 = call zeroext i1 @show_fragment_errs_in_col(ptr noundef %125, ptr noundef %126, ptr noundef %127)
  call void @llvm.lifetime.end.p0(i64 4, ptr %16) #16
  call void @llvm.lifetime.end.p0(i64 1, ptr %15) #16
  call void @llvm.lifetime.end.p0(i64 8, ptr %14) #16
  call void @llvm.lifetime.end.p0(i64 8, ptr %13) #16
  ret i1 %128
}