; Function Attrs: null_pointer_is_valid sspstrong uwtable
define noundef zeroext i1 @show_fragment_tree(ptr noundef readonly captures(none) %0, ptr noundef readonly captures(none) %1, ptr noundef %2, ptr noundef captures(none) initializes((272, 273)) %3, ptr noundef %4, ptr noundef captures(none) initializes((0, 8)) %5) local_unnamed_addr #2 {
  %7 = getelementptr inbounds nuw i8, ptr %3, i64 272
  store i8 0, ptr %7, align 8
  %8 = getelementptr inbounds nuw i8, ptr %1, i64 16
  %9 = load ptr, ptr %8, align 8
  %10 = load i32, ptr %9, align 4
  %11 = tail call ptr @proto_tree_add_item(ptr noundef %2, i32 noundef %10, ptr noundef %4, i32 noundef 0, i32 noundef -1, i32 noundef 0)
  store ptr %11, ptr %5, align 8
  %.not.i = icmp eq ptr %11, null
  br i1 %.not.i, label %proto_item_set_generated.exit, label %12

12:                                               ; preds = %6
  %13 = getelementptr inbounds nuw i8, ptr %11, i64 40
  %14 = load ptr, ptr %13, align 8
  %.not5.i = icmp eq ptr %14, null
  br i1 %.not5.i, label %proto_item_set_generated.exit, label %15

15:                                               ; preds = %12
  %16 = getelementptr inbounds nuw i8, ptr %14, i64 28
  %17 = load i32, ptr %16, align 4
  %18 = or i32 %17, 2
  store i32 %18, ptr %16, align 4
  %.pre = load ptr, ptr %5, align 8
  br label %proto_item_set_generated.exit

proto_item_set_generated.exit:                    ; preds = %6, %12, %15
  %19 = phi ptr [ null, %6 ], [ %11, %12 ], [ %.pre, %15 ]
  %20 = getelementptr inbounds nuw i8, ptr %1, i64 8
  %21 = load ptr, ptr %20, align 8
  %22 = load i32, ptr %21, align 4
  %23 = tail call ptr @proto_item_add_subtree(ptr noundef %19, i32 noundef %22)
  br label %24

24:                                               ; preds = %24, %proto_item_set_generated.exit
  %.045 = phi i32 [ 0, %proto_item_set_generated.exit ], [ %25, %24 ]
  %.0.in = phi ptr [ %0, %proto_item_set_generated.exit ], [ %.0, %24 ]
  %.0 = load ptr, ptr %.0.in, align 8
  %.not = icmp eq ptr %.0, null
  %25 = add i32 %.045, 1
  br i1 %.not, label %.preheader, label %24, !llvm.loop !46

.preheader:                                       ; preds = %24
  %.163 = load ptr, ptr %0, align 8
  %.not4964 = icmp eq ptr %.163, null
  br i1 %.not4964, label %._crit_edge, label %.lr.ph

.lr.ph:                                           ; preds = %.preheader, %.lr.ph
  %.166 = phi ptr [ %.1, %.lr.ph ], [ %.163, %.preheader ]
  %.04465 = phi i1 [ false, %.lr.ph ], [ true, %.preheader ]
  %26 = getelementptr inbounds nuw i8, ptr %.166, i64 12
  %27 = load i32, ptr %26, align 4
  %28 = load ptr, ptr %5, align 8
  tail call fastcc void @show_fragment(ptr noundef %.166, i32 noundef %27, ptr noundef %1, ptr noundef %23, ptr noundef %28, i1 noundef zeroext %.04465, i32 noundef %.045, ptr noundef %4, ptr noundef %3)
  %.1 = load ptr, ptr %.166, align 8
  %.not49 = icmp eq ptr %.1, null
  br i1 %.not49, label %._crit_edge, label %.lr.ph, !llvm.loop !47

._crit_edge:                                      ; preds = %.lr.ph, %.preheader
  %29 = getelementptr inbounds nuw i8, ptr %1, i64 72
  %30 = load ptr, ptr %29, align 8
  %.not50 = icmp eq ptr %30, null
  br i1 %.not50, label %proto_item_set_generated.exit55, label %31

31:                                               ; preds = %._crit_edge
  %32 = load i32, ptr %30, align 4
  %33 = tail call ptr @proto_tree_add_uint(ptr noundef %23, i32 noundef %32, ptr noundef %4, i32 noundef 0, i32 noundef 0, i32 noundef %.045)
  %.not.i53 = icmp eq ptr %33, null
  br i1 %.not.i53, label %proto_item_set_generated.exit55, label %34

34:                                               ; preds = %31
  %35 = getelementptr inbounds nuw i8, ptr %33, i64 40
  %36 = load ptr, ptr %35, align 8
  %.not5.i54 = icmp eq ptr %36, null
  br i1 %.not5.i54, label %proto_item_set_generated.exit55, label %37

37:                                               ; preds = %34
  %38 = getelementptr inbounds nuw i8, ptr %36, i64 28
  %39 = load i32, ptr %38, align 4
  %40 = or i32 %39, 2
  store i32 %40, ptr %38, align 4
  br label %proto_item_set_generated.exit55

proto_item_set_generated.exit55:                  ; preds = %37, %34, %31, %._crit_edge
  %41 = getelementptr inbounds nuw i8, ptr %1, i64 88
  %42 = load ptr, ptr %41, align 8
  %.not51 = icmp eq ptr %42, null
  br i1 %.not51, label %proto_item_set_generated.exit58, label %43

43:                                               ; preds = %proto_item_set_generated.exit55
  %44 = load i32, ptr %42, align 4
  %45 = tail call i32 @tvb_captured_length(ptr noundef %4)
  %46 = tail call ptr @proto_tree_add_uint(ptr noundef %23, i32 noundef %44, ptr noundef %4, i32 noundef 0, i32 noundef 0, i32 noundef %45)
  %.not.i56 = icmp eq ptr %46, null
  br i1 %.not.i56, label %proto_item_set_generated.exit58, label %47

47:                                               ; preds = %43
  %48 = getelementptr inbounds nuw i8, ptr %46, i64 40
  %49 = load ptr, ptr %48, align 8
  %.not5.i57 = icmp eq ptr %49, null
  br i1 %.not5.i57, label %proto_item_set_generated.exit58, label %50

50:                                               ; preds = %47
  %51 = getelementptr inbounds nuw i8, ptr %49, i64 28
  %52 = load i32, ptr %51, align 4
  %53 = or i32 %52, 2
  store i32 %53, ptr %51, align 4
  br label %proto_item_set_generated.exit58

proto_item_set_generated.exit58:                  ; preds = %50, %47, %43, %proto_item_set_generated.exit55
  %54 = getelementptr inbounds nuw i8, ptr %1, i64 96
  %55 = load ptr, ptr %54, align 8
  %.not52 = icmp eq ptr %55, null
  br i1 %.not52, label %proto_item_set_generated.exit61, label %56

56:                                               ; preds = %proto_item_set_generated.exit58
  %57 = load i32, ptr %55, align 4
  %58 = tail call i32 @tvb_captured_length(ptr noundef %4)
  %59 = tail call ptr @proto_tree_add_item(ptr noundef %23, i32 noundef %57, ptr noundef %4, i32 noundef 0, i32 noundef %58, i32 noundef 0)
  %.not.i59 = icmp eq ptr %59, null
  br i1 %.not.i59, label %proto_item_set_generated.exit61, label %60

60:                                               ; preds = %56
  %61 = getelementptr inbounds nuw i8, ptr %59, i64 40
  %62 = load ptr, ptr %61, align 8
  %.not5.i60 = icmp eq ptr %62, null
  br i1 %.not5.i60, label %proto_item_set_generated.exit61, label %63

63:                                               ; preds = %60
  %64 = getelementptr inbounds nuw i8, ptr %62, i64 28
  %65 = load i32, ptr %64, align 4
  %66 = or i32 %65, 2
  store i32 %66, ptr %64, align 4
  br label %proto_item_set_generated.exit61

proto_item_set_generated.exit61:                  ; preds = %63, %60, %56, %proto_item_set_generated.exit58
  %67 = getelementptr i8, ptr %0, i64 48
  %.val = load i32, ptr %67, align 8
  %68 = and i32 %.val, 28
  %.not.i62 = icmp ne i32 %68, 0
  br i1 %.not.i62, label %69, label %show_fragment_errs_in_col.exit

69:                                               ; preds = %proto_item_set_generated.exit61
  %70 = getelementptr inbounds nuw i8, ptr %3, i64 8
  %71 = load ptr, ptr %70, align 8
  %72 = getelementptr inbounds nuw i8, ptr %1, i64 104
  %73 = load ptr, ptr %72, align 8
  tail call void (ptr, i32, ptr, ...) @col_add_fstr(ptr noundef %71, i32 noundef 25, ptr noundef nonnull @.str.40, ptr noundef %73)
  br label %show_fragment_errs_in_col.exit

show_fragment_errs_in_col.exit:                   ; preds = %proto_item_set_generated.exit61, %69
  ret i1 %.not.i62
}